(dp0
S'METTS MARK'
p1
(dp2
S'to_messages'
p3
I807
sS'deferral_payments'
p4
S'NaN'
p5
sS'expenses'
p6
I94299
sS'from_this_person_to_poi_ratio1'
p7
F0.00124
sS'from_this_person_to_poi_ratio2'
p8
F0.00024
sS'poi'
p9
I00
sS'deferred_income'
p10
g5
sS'email_address'
p11
S'mark.metts@enron.com'
p12
sS'long_term_incentive'
p13
g5
sS'from_poi_to_this_person_ratio1'
p14
F1.31034
sS'from_poi_to_this_person_ratio2'
p15
F0.00904
sS'restricted_stock_deferred'
p16
g5
sS'shared_receipt_with_poi'
p17
I702
sS'loan_advances'
p18
g5
sS'from_messages'
p19
I29
sS'other'
p20
I1740
sS'director_fees'
p21
g5
sS'bonus'
p22
I600000
sS'total_stock_value'
p23
I585062
sS'from_poi_to_this_person'
p24
I38
sS'from_this_person_to_poi'
p25
I1
sS'restricted_stock'
p26
I585062
sS'salary'
p27
I365788
sS'total_payments'
p28
I1061827
sS'exercised_stock_options'
p29
g5
ssS'BAXTER JOHN C'
p30
(dp31
g3
g5
sg4
I1295738
sg6
I11200
sg7
S'NaN'
p32
sg8
g32
sg9
I00
sg10
I-1386055
sg11
g5
sg13
I1586055
sg14
g32
sg15
g32
sg16
g5
sg17
g5
sg18
g5
sg19
g5
sg20
I2660303
sg21
g5
sg22
I1200000
sg23
I10623258
sg24
g5
sg25
g5
sg26
I3942714
sg27
I267102
sg28
I5634343
sg29
I6680544
ssS'ELLIOTT STEVEN'
p33
(dp34
g3
g5
sg4
g5
sg6
I78552
sg7
g32
sg8
g32
sg9
I00
sg10
I-400729
sg11
S'steven.elliott@enron.com'
p35
sg13
g5
sg14
g32
sg15
g32
sg16
g5
sg17
g5
sg18
g5
sg19
g5
sg20
I12961
sg21
g5
sg22
I350000
sg23
I6678735
sg24
g5
sg25
g5
sg26
I1788391
sg27
I170941
sg28
I211725
sg29
I4890344
ssS'CORDES WILLIAM R'
p36
(dp37
g3
I764
sg4
g5
sg6
g5
sg7
F0.0
sg8
F0.0
sg9
I00
sg10
g5
sg11
S'bill.cordes@enron.com'
p38
sg13
g5
sg14
F0.83333
sg15
F0.00238
sg16
g5
sg17
I58
sg18
g5
sg19
I12
sg20
g5
sg21
g5
sg22
g5
sg23
I1038185
sg24
I10
sg25
I0
sg26
I386335
sg27
g5
sg28
g5
sg29
I651850
ssS'HANNON KEVIN P'
p39
(dp40
g3
I1045
sg4
g5
sg6
I34039
sg7
F0.0201
sg8
F0.00499
sg9
I01
sg10
I-3117011
sg11
S'kevin.hannon@enron.com'
p41
sg13
I1617011
sg14
F1.0
sg15
F0.00761
sg16
g5
sg17
I1035
sg18
g5
sg19
I32
sg20
I11350
sg21
g5
sg22
I1500000
sg23
I6391065
sg24
I32
sg25
I21
sg26
I853064
sg27
I243293
sg28
I288682
sg29
I5538001
ssS'MORDAUNT KRISTINA M'
p42
(dp43
g3
g5
sg4
g5
sg6
I35018
sg7
g32
sg8
g32
sg9
I00
sg10
g5
sg11
S'kristina.mordaunt@enron.com'
p44
sg13
g5
sg14
g32
sg15
g32
sg16
g5
sg17
g5
sg18
g5
sg19
g5
sg20
I1411
sg21
g5
sg22
I325000
sg23
I208510
sg24
g5
sg25
g5
sg26
I208510
sg27
I267093
sg28
I628522
sg29
g5
ssS'MEYER ROCKFORD G'
p45
(dp46
g3
I232
sg4
I1848227
sg6
g5
sg7
F0.0
sg8
F0.0
sg9
I00
sg10
g5
sg11
S'rockford.meyer@enron.com'
p47
sg13
g5
sg14
F0.0
sg15
F0.0
sg16
g5
sg17
I22
sg18
g5
sg19
I28
sg20
g5
sg21
g5
sg22
g5
sg23
I955873
sg24
I0
sg25
I0
sg26
I462384
sg27
g5
sg28
I1848227
sg29
I493489
ssS'MCMAHON JEFFREY'
p48
(dp49
g3
I2355
sg4
g5
sg6
I137108
sg7
F0.01104
sg8
F0.00618
sg9
I00
sg10
g5
sg11
S'jeffrey.mcmahon@enron.com'
p50
sg13
I694862
sg14
F1.20833
sg15
F0.01379
sg16
g5
sg17
I2228
sg18
g5
sg19
I48
sg20
I297353
sg21
g5
sg22
I2600000
sg23
I1662855
sg24
I58
sg25
I26
sg26
I558801
sg27
I370448
sg28
I4099771
sg29
I1104054
ssS'HORTON STANLEY C'
p51
(dp52
g3
I2350
sg4
I3131860
sg6
g5
sg7
F0.00638
sg8
F0.00357
sg9
I00
sg10
g5
sg11
S'stanley.horton@enron.com'
p53
sg13
g5
sg14
F0.04101
sg15
F0.01046
sg16
g5
sg17
I1074
sg18
g5
sg19
I1073
sg20
g5
sg21
g5
sg22
g5
sg23
I7256648
sg24
I44
sg25
I15
sg26
I2046079
sg27
g5
sg28
I3131860
sg29
I5210569
ssS'PIPER GREGORY F'
p54
(dp55
g3
I1238
sg4
I1130036
sg6
I43057
sg7
F0.03877
sg8
F0.01141
sg9
I00
sg10
I-33333
sg11
S'greg.piper@enron.com'
p56
sg13
g5
sg14
F0.27477
sg15
F0.01451
sg16
I-409554
sg17
I742
sg18
g5
sg19
I222
sg20
I778
sg21
g5
sg22
I400000
sg23
I880290
sg24
I61
sg25
I48
sg26
I409554
sg27
I197091
sg28
I1737629
sg29
I880290
ssS'HUMPHREY GENE E'
p57
(dp58
g3
I128
sg4
I2964506
sg6
I4994
sg7
F0.13281
sg8
F0.00404
sg9
I00
sg10
g5
sg11
S'gene.humphrey@enron.com'
p59
sg13
g5
sg14
F0.58824
sg15
F0.00238
sg16
g5
sg17
I119
sg18
g5
sg19
I17
sg20
g5
sg21
g5
sg22
g5
sg23
I2282768
sg24
I10
sg25
I17
sg26
g5
sg27
I130724
sg28
I3100224
sg29
I2282768
ssS'UMANOFF ADAM S'
p60
(dp61
g3
I111
sg4
g5
sg6
I53122
sg7
F0.0
sg8
F0.0
sg9
I00
sg10
g5
sg11
S'adam.umanoff@enron.com'
p62
sg13
g5
sg14
F0.66667
sg15
F0.00285
sg16
g5
sg17
I41
sg18
g5
sg19
I18
sg20
g5
sg21
g5
sg22
I788750
sg23
g5
sg24
I12
sg25
I0
sg26
g5
sg27
I288589
sg28
I1130461
sg29
g5
ssS'BLACHMAN JEREMY M'
p63
(dp64
g3
I2475
sg4
g5
sg6
I84208
sg7
F0.00081
sg8
F0.00048
sg9
I00
sg10
g5
sg11
S'jeremy.blachman@enron.com'
p65
sg13
I831809
sg14
F1.78571
sg15
F0.00595
sg16
g5
sg17
I2326
sg18
g5
sg19
I14
sg20
I272
sg21
g5
sg22
I850000
sg23
I954354
sg24
I25
sg25
I2
sg26
I189041
sg27
I248546
sg28
I2014835
sg29
I765313
ssS'SUNDE MARTIN'
p66
(dp67
g3
I2647
sg4
g5
sg6
g5
sg7
F0.00491
sg8
F0.00309
sg9
I00
sg10
g5
sg11
S'marty.sunde@enron.com'
p68
sg13
I476451
sg14
F0.97368
sg15
F0.0088
sg16
g5
sg17
I2565
sg18
g5
sg19
I38
sg20
I111122
sg21
g5
sg22
I700000
sg23
I698920
sg24
I37
sg25
I13
sg26
I698920
sg27
I257486
sg28
I1545059
sg29
g5
ssS'GIBBS DANA R'
p69
(dp70
g3
I169
sg4
I504610
sg6
g5
sg7
F0.0
sg8
F0.0
sg9
I00
sg10
g5
sg11
S'dana.gibbs@enron.com'
p71
sg13
I461912
sg14
F0.0
sg15
F0.0
sg16
g5
sg17
I23
sg18
g5
sg19
I12
sg20
g5
sg21
g5
sg22
g5
sg23
I2218275
sg24
I0
sg25
I0
sg26
g5
sg27
g5
sg28
I966522
sg29
I2218275
ssS'LOWRY CHARLES P'
p72
(dp73
g3
g5
sg4
g5
sg6
g5
sg7
g32
sg8
g32
sg9
I00
sg10
g5
sg11
g5
sg13
g5
sg14
g32
sg15
g32
sg16
I-153686
sg17
g5
sg18
g5
sg19
g5
sg20
g5
sg21
g5
sg22
g5
sg23
I372205
sg24
g5
sg25
g5
sg26
I153686
sg27
g5
sg28
g5
sg29
I372205
ssS'COLWELL WESLEY'
p74
(dp75
g3
I1758
sg4
I27610
sg6
I16514
sg7
F0.00626
sg8
F0.00262
sg9
I01
sg10
I-144062
sg11
S'wes.colwell@enron.com'
p76
sg13
g5
sg14
F6.0
sg15
F0.05707
sg16
g5
sg17
I1132
sg18
g5
sg19
I40
sg20
I101740
sg21
g5
sg22
I1200000
sg23
I698242
sg24
I240
sg25
I11
sg26
I698242
sg27
I288542
sg28
I1490344
sg29
g5
ssS'MULLER MARK S'
p77
(dp78
g3
I136
sg4
I842924
sg6
g5
sg7
F0.0
sg8
F0.0
sg9
I00
sg10
I-719000
sg11
S's..muller@enron.com'
p79
sg13
I1725545
sg14
F0.75
sg15
F0.00285
sg16
g5
sg17
I114
sg18
g5
sg19
I16
sg20
I947
sg21
g5
sg22
I1100000
sg23
I1416848
sg24
I12
sg25
I0
sg26
I360528
sg27
I251654
sg28
I3202070
sg29
I1056320
ssS'JACKSON CHARLENE R'
p80
(dp81
g3
I258
sg4
g5
sg6
I10181
sg7
F0.07364
sg8
F0.00452
sg9
I00
sg10
g5
sg11
S'charlene.jackson@enron.com'
p82
sg13
g5
sg14
F0.44643
sg15
F0.00595
sg16
g5
sg17
I117
sg18
g5
sg19
I56
sg20
I2435
sg21
g5
sg22
I250000
sg23
I725735
sg24
I25
sg25
I19
sg26
I540672
sg27
I288558
sg28
I551174
sg29
I185063
ssS'WESTFAHL RICHARD K'
p83
(dp84
g3
g5
sg4
g5
sg6
I51870
sg7
g32
sg8
g32
sg9
I00
sg10
I-10800
sg11
S'dick.westfahl@enron.com'
p85
sg13
I256191
sg14
g32
sg15
g32
sg16
g5
sg17
g5
sg18
g5
sg19
g5
sg20
I401130
sg21
g5
sg22
g5
sg23
I384930
sg24
g5
sg25
g5
sg26
I384930
sg27
I63744
sg28
I762135
sg29
g5
ssS'WALTERS GARETH W'
p86
(dp87
g3
g5
sg4
I53625
sg6
I33785
sg7
g32
sg8
g32
sg9
I00
sg10
g5
sg11
g5
sg13
g5
sg14
g32
sg15
g32
sg16
g5
sg17
g5
sg18
g5
sg19
g5
sg20
g5
sg21
g5
sg22
g5
sg23
I1030329
sg24
g5
sg25
g5
sg26
g5
sg27
g5
sg28
I87410
sg29
I1030329
ssS'WALLS JR ROBERT H'
p88
(dp89
g3
I671
sg4
g5
sg6
I50936
sg7
F0.0
sg8
F0.0
sg9
I00
sg10
g5
sg11
S'rob.walls@enron.com'
p90
sg13
I540751
sg14
F0.11644
sg15
F0.00404
sg16
g5
sg17
I215
sg18
g5
sg19
I146
sg20
I2
sg21
g5
sg22
I850000
sg23
I5898997
sg24
I17
sg25
I0
sg26
I1552453
sg27
I357091
sg28
I1798780
sg29
I4346544
ssS'KITCHEN LOUISE'
p91
(dp92
g3
I8305
sg4
g5
sg6
I5774
sg7
F0.02336
sg8
F0.04614
sg9
I00
sg10
g5
sg11
S'louise.kitchen@enron.com'
p93
sg13
g5
sg14
F0.14525
sg15
F0.05969
sg16
g5
sg17
I3669
sg18
g5
sg19
I1728
sg20
I93925
sg21
g5
sg22
I3100000
sg23
I547143
sg24
I251
sg25
I194
sg26
I466101
sg27
I271442
sg28
I3471141
sg29
I81042
ssS'CHAN RONNIE'
p94
(dp95
g3
g5
sg4
g5
sg6
g5
sg7
g32
sg8
g32
sg9
I00
sg10
I-98784
sg11
g5
sg13
g5
sg14
g32
sg15
g32
sg16
I-32460
sg17
g5
sg18
g5
sg19
g5
sg20
g5
sg21
I98784
sg22
g5
sg23
g5
sg24
g5
sg25
g5
sg26
I32460
sg27
g5
sg28
g5
sg29
g5
ssS'BELFER ROBERT'
p96
(dp97
g3
g5
sg4
I-102500
sg6
g5
sg7
g32
sg8
g32
sg9
I00
sg10
g5
sg11
g5
sg13
g5
sg14
g32
sg15
g32
sg16
I44093
sg17
g5
sg18
g5
sg19
g5
sg20
g5
sg21
I3285
sg22
g5
sg23
I-44093
sg24
g5
sg25
g5
sg26
g5
sg27
g5
sg28
I102500
sg29
I3285
ssS'SHANKMAN JEFFREY A'
p98
(dp99
g3
I3221
sg4
g5
sg6
I178979
sg7
F0.02577
sg8
F0.01974
sg9
I00
sg10
g5
sg11
S'jeffrey.shankman@enron.com'
p100
sg13
I554422
sg14
F0.03506
sg15
F0.02235
sg16
g5
sg17
I1730
sg18
g5
sg19
I2681
sg20
I1191
sg21
g5
sg22
I2000000
sg23
I2072035
sg24
I94
sg25
I83
sg26
I630137
sg27
I304110
sg28
I3038702
sg29
I1441898
ssS'WODRASKA JOHN'
p101
(dp102
g3
g5
sg4
g5
sg6
g5
sg7
g32
sg8
g32
sg9
I00
sg10
g5
sg11
S'john.wodraska@enron.com'
p103
sg13
g5
sg14
g32
sg15
g32
sg16
g5
sg17
g5
sg18
g5
sg19
g5
sg20
I189583
sg21
g5
sg22
g5
sg23
g5
sg24
g5
sg25
g5
sg26
g5
sg27
g5
sg28
I189583
sg29
g5
ssS'BERGSIEKER RICHARD P'
p104
(dp105
g3
I383
sg4
g5
sg6
I59175
sg7
F0.0
sg8
F0.0
sg9
I00
sg10
I-485813
sg11
S'rick.bergsieker@enron.com'
p106
sg13
I180250
sg14
F0.0678
sg15
F0.00095
sg16
g5
sg17
I233
sg18
g5
sg19
I59
sg20
I427316
sg21
g5
sg22
I250000
sg23
I659249
sg24
I4
sg25
I0
sg26
I659249
sg27
I187922
sg28
I618850
sg29
g5
ssS'URQUHART JOHN A'
p107
(dp108
g3
g5
sg4
g5
sg6
I228656
sg7
g32
sg8
g32
sg9
I00
sg10
I-36666
sg11
g5
sg13
g5
sg14
g32
sg15
g32
sg16
g5
sg17
g5
sg18
g5
sg19
g5
sg20
g5
sg21
I36666
sg22
g5
sg23
g5
sg24
g5
sg25
g5
sg26
g5
sg27
g5
sg28
I228656
sg29
g5
ssS'BIBI PHILIPPE A'
p109
(dp110
g3
I1607
sg4
g5
sg6
I38559
sg7
F0.00498
sg8
F0.0019
sg9
I00
sg10
g5
sg11
S'philippe.bibi@enron.com'
p111
sg13
I369721
sg14
F0.575
sg15
F0.00547
sg16
g5
sg17
I1336
sg18
g5
sg19
I40
sg20
I425688
sg21
g5
sg22
I1000000
sg23
I1843816
sg24
I23
sg25
I8
sg26
I378082
sg27
I213625
sg28
I2047593
sg29
I1465734
ssS'RIEKER PAULA H'
p112
(dp113
g3
I1328
sg4
I214678
sg6
I33271
sg7
F0.03614
sg8
F0.01141
sg9
I01
sg10
I-100000
sg11
S'paula.rieker@enron.com'
p114
sg13
g5
sg14
F0.42683
sg15
F0.00832
sg16
g5
sg17
I1258
sg18
g5
sg19
I82
sg20
I1950
sg21
g5
sg22
I700000
sg23
I1918887
sg24
I35
sg25
I48
sg26
I283649
sg27
I249201
sg28
I1099100
sg29
I1635238
ssS'WHALEY DAVID A'
p115
(dp116
g3
g5
sg4
g5
sg6
g5
sg7
g32
sg8
g32
sg9
I00
sg10
g5
sg11
g5
sg13
g5
sg14
g32
sg15
g32
sg16
g5
sg17
g5
sg18
g5
sg19
g5
sg20
g5
sg21
g5
sg22
g5
sg23
I98718
sg24
g5
sg25
g5
sg26
g5
sg27
g5
sg28
g5
sg29
I98718
ssS'BECK SALLY W'
p117
(dp118
g3
I7315
sg4
g5
sg6
I37172
sg7
F0.05277
sg8
F0.0918
sg9
I00
sg10
g5
sg11
S'sally.beck@enron.com'
p119
sg13
g5
sg14
F0.03316
sg15
F0.03424
sg16
g5
sg17
I2639
sg18
g5
sg19
I4343
sg20
I566
sg21
g5
sg22
I700000
sg23
I126027
sg24
I144
sg25
I386
sg26
I126027
sg27
I231330
sg28
I969068
sg29
g5
ssS'HAUG DAVID L'
p120
(dp121
g3
I573
sg4
g5
sg6
I475
sg7
F0.01222
sg8
F0.00166
sg9
I00
sg10
g5
sg11
S'david.haug@enron.com'
p122
sg13
g5
sg14
F0.21053
sg15
F0.00095
sg16
g5
sg17
I471
sg18
g5
sg19
I19
sg20
g5
sg21
g5
sg22
g5
sg23
I2217299
sg24
I4
sg25
I7
sg26
I2217299
sg27
g5
sg28
I475
sg29
g5
ssS'ECHOLS JOHN B'
p123
(dp124
g3
g5
sg4
g5
sg6
I21530
sg7
g32
sg8
g32
sg9
I00
sg10
g5
sg11
S'john.echols@enron.com'
p125
sg13
I2234774
sg14
g32
sg15
g32
sg16
g5
sg17
g5
sg18
g5
sg19
g5
sg20
I53775
sg21
g5
sg22
I200000
sg23
I1008941
sg24
g5
sg25
g5
sg26
I407503
sg27
I182245
sg28
I2692324
sg29
I601438
ssS'MENDELSOHN JOHN'
p126
(dp127
g3
g5
sg4
g5
sg6
I148
sg7
g32
sg8
g32
sg9
I00
sg10
I-103750
sg11
g5
sg13
g5
sg14
g32
sg15
g32
sg16
g5
sg17
g5
sg18
g5
sg19
g5
sg20
g5
sg21
I103750
sg22
g5
sg23
g5
sg24
g5
sg25
g5
sg26
g5
sg27
g5
sg28
I148
sg29
g5
ssS'HICKERSON GARY J'
p128
(dp129
g3
I1320
sg4
g5
sg6
I98849
sg7
F0.00076
sg8
F0.00024
sg9
I00
sg10
g5
sg11
S'gary.hickerson@enron.com'
p130
sg13
I69223
sg14
F1.48148
sg15
F0.00951
sg16
g5
sg17
I900
sg18
g5
sg19
I27
sg20
I1936
sg21
g5
sg22
I1700000
sg23
I441096
sg24
I40
sg25
I1
sg26
I441096
sg27
I211788
sg28
I2081796
sg29
g5
ssS'CLINE KENNETH W'
p131
(dp132
g3
g5
sg4
g5
sg6
g5
sg7
g32
sg8
g32
sg9
I00
sg10
g5
sg11
g5
sg13
g5
sg14
g32
sg15
g32
sg16
I-472568
sg17
g5
sg18
g5
sg19
g5
sg20
g5
sg21
g5
sg22
g5
sg23
I189518
sg24
g5
sg25
g5
sg26
I662086
sg27
g5
sg28
g5
sg29
g5
ssS'LEWIS RICHARD'
p133
(dp134
g3
I952
sg4
g5
sg6
g5
sg7
F0.0
sg8
F0.0
sg9
I00
sg10
g5
sg11
S'richard.lewis@enron.com'
p135
sg13
g5
sg14
F0.38462
sg15
F0.00238
sg16
g5
sg17
I739
sg18
g5
sg19
I26
sg20
g5
sg21
g5
sg22
g5
sg23
I850477
sg24
I10
sg25
I0
sg26
g5
sg27
g5
sg28
g5
sg29
I850477
ssS'HAYES ROBERT E'
p136
(dp137
g3
I504
sg4
I7961
sg6
g5
sg7
F0.0
sg8
F0.0
sg9
I00
sg10
g5
sg11
S'robert.hayes@enron.com'
p138
sg13
g5
sg14
F1.33333
sg15
F0.0038
sg16
g5
sg17
I50
sg18
g5
sg19
I12
sg20
g5
sg21
g5
sg22
g5
sg23
I151418
sg24
I16
sg25
I0
sg26
I151418
sg27
g5
sg28
I7961
sg29
g5
ssS'MCCARTY DANNY J'
p139
(dp140
g3
I1433
sg4
g5
sg6
g5
sg7
F0.0014
sg8
F0.00048
sg9
I00
sg10
g5
sg11
S'danny.mccarty@enron.com'
p141
sg13
g5
sg14
F0.11628
sg15
F0.00595
sg16
g5
sg17
I508
sg18
g5
sg19
I215
sg20
g5
sg21
g5
sg22
g5
sg23
I758931
sg24
I25
sg25
I2
sg26
I94556
sg27
g5
sg28
g5
sg29
I664375
ssS'KOPPER MICHAEL J'
p142
(dp143
g3
g5
sg4
g5
sg6
I118134
sg7
g32
sg8
g32
sg9
I01
sg10
g5
sg11
S'michael.kopper@enron.com'
p144
sg13
I602671
sg14
g32
sg15
g32
sg16
g5
sg17
g5
sg18
g5
sg19
g5
sg20
I907502
sg21
g5
sg22
I800000
sg23
I985032
sg24
g5
sg25
g5
sg26
I985032
sg27
I224305
sg28
I2652612
sg29
g5
ssS'LEFF DANIEL P'
p145
(dp146
g3
I2822
sg4
g5
sg6
g5
sg7
F0.00496
sg8
F0.00333
sg9
I00
sg10
g5
sg11
S'dan.leff@enron.com'
p147
sg13
I1387399
sg14
F1.06349
sg15
F0.01593
sg16
g5
sg17
I2672
sg18
g5
sg19
I63
sg20
I3083
sg21
g5
sg22
I1000000
sg23
I360528
sg24
I67
sg25
I14
sg26
I360528
sg27
I273746
sg28
I2664228
sg29
g5
ssS'LAVORATO JOHN J'
p148
(dp149
g3
I7259
sg4
g5
sg6
I49537
sg7
F0.05662
sg8
F0.09774
sg9
I00
sg10
g5
sg11
S'john.lavorato@enron.com'
p150
sg13
I2035380
sg14
F0.20426
sg15
F0.12556
sg16
g5
sg17
I3962
sg18
g5
sg19
I2585
sg20
I1552
sg21
g5
sg22
I8000000
sg23
I5167144
sg24
I528
sg25
I411
sg26
I1008149
sg27
I339288
sg28
I10425757
sg29
I4158995
ssS'BERBERIAN DAVID'
p151
(dp152
g3
g5
sg4
g5
sg6
I11892
sg7
g32
sg8
g32
sg9
I00
sg10
g5
sg11
S'david.berberian@enron.com'
p153
sg13
g5
sg14
g32
sg15
g32
sg16
g5
sg17
g5
sg18
g5
sg19
g5
sg20
g5
sg21
g5
sg22
g5
sg23
I2493616
sg24
g5
sg25
g5
sg26
I869220
sg27
I216582
sg28
I228474
sg29
I1624396
ssS'DETMERING TIMOTHY J'
p154
(dp155
g3
g5
sg4
I875307
sg6
I52255
sg7
g32
sg8
g32
sg9
I00
sg10
I-775241
sg11
S'timothy.detmering@enron.com'
p156
sg13
I415657
sg14
g32
sg15
g32
sg16
I-315068
sg17
g5
sg18
g5
sg19
g5
sg20
I1105
sg21
g5
sg22
I425000
sg23
I2027865
sg24
g5
sg25
g5
sg26
I315068
sg27
I210500
sg28
I1204583
sg29
I2027865
ssS'WAKEHAM JOHN'
p157
(dp158
g3
g5
sg4
g5
sg6
I103773
sg7
g32
sg8
g32
sg9
I00
sg10
g5
sg11
g5
sg13
g5
sg14
g32
sg15
g32
sg16
g5
sg17
g5
sg18
g5
sg19
g5
sg20
g5
sg21
I109298
sg22
g5
sg23
g5
sg24
g5
sg25
g5
sg26
g5
sg27
g5
sg28
I213071
sg29
g5
ssS'POWERS WILLIAM'
p159
(dp160
g3
I653
sg4
g5
sg6
g5
sg7
F0.0
sg8
F0.0
sg9
I00
sg10
I-17500
sg11
S'ken.powers@enron.com'
p161
sg13
g5
sg14
F0.0
sg15
F0.0
sg16
g5
sg17
I12
sg18
g5
sg19
I26
sg20
g5
sg21
I17500
sg22
g5
sg23
g5
sg24
I0
sg25
I0
sg26
g5
sg27
g5
sg28
g5
sg29
g5
ssS'GOLD JOSEPH'
p162
(dp163
g3
g5
sg4
g5
sg6
g5
sg7
g32
sg8
g32
sg9
I00
sg10
g5
sg11
S'joe.gold@enron.com'
p164
sg13
I304805
sg14
g32
sg15
g32
sg16
g5
sg17
g5
sg18
g5
sg19
g5
sg20
I819288
sg21
g5
sg22
I750000
sg23
I877611
sg24
g5
sg25
g5
sg26
I441096
sg27
I272880
sg28
I2146973
sg29
I436515
ssS'BANNANTINE JAMES M'
p165
(dp166
g3
I566
sg4
g5
sg6
I56301
sg7
F0.0
sg8
F0.0
sg9
I00
sg10
I-5104
sg11
S'james.bannantine@enron.com'
p167
sg13
g5
sg14
F1.34483
sg15
F0.00927
sg16
I-560222
sg17
I465
sg18
g5
sg19
I29
sg20
I864523
sg21
g5
sg22
g5
sg23
I5243487
sg24
I39
sg25
I0
sg26
I1757552
sg27
I477
sg28
I916197
sg29
I4046157
ssS'DUNCAN JOHN H'
p168
(dp169
g3
g5
sg4
g5
sg6
g5
sg7
g32
sg8
g32
sg9
I00
sg10
I-25000
sg11
g5
sg13
g5
sg14
g32
sg15
g32
sg16
g5
sg17
g5
sg18
g5
sg19
g5
sg20
g5
sg21
I102492
sg22
g5
sg23
I371750
sg24
g5
sg25
g5
sg26
g5
sg27
g5
sg28
I77492
sg29
I371750
ssS'SHAPIRO RICHARD S'
p170
(dp171
g3
I15149
sg4
g5
sg6
I137767
sg7
F0.00429
sg8
F0.01546
sg9
I00
sg10
g5
sg11
S'richard.shapiro@enron.com'
p172
sg13
g5
sg14
F0.06091
sg15
F0.0176
sg16
g5
sg17
I4527
sg18
g5
sg19
I1215
sg20
I705
sg21
g5
sg22
I650000
sg23
I987001
sg24
I74
sg25
I65
sg26
I379164
sg27
I269076
sg28
I1057548
sg29
I607837
ssS'SHERRIFF JOHN R'
p173
(dp174
g3
I3187
sg4
g5
sg6
g5
sg7
F0.00722
sg8
F0.00547
sg9
I00
sg10
g5
sg11
S'john.sherriff@enron.com'
p175
sg13
I554422
sg14
F0.30435
sg15
F0.00666
sg16
g5
sg17
I2103
sg18
g5
sg19
I92
sg20
I1852186
sg21
g5
sg22
I1500000
sg23
I3128982
sg24
I28
sg25
I23
sg26
I1293424
sg27
I428780
sg28
I4335388
sg29
I1835558
ssS'SHELBY REX'
p176
(dp177
g3
I225
sg4
g5
sg6
I22884
sg7
F0.06222
sg8
F0.00333
sg9
I01
sg10
I-4167
sg11
S'rex.shelby@enron.com'
p178
sg13
g5
sg14
F0.33333
sg15
F0.00309
sg16
g5
sg17
I91
sg18
g5
sg19
I39
sg20
I1573324
sg21
g5
sg22
I200000
sg23
I2493616
sg24
I13
sg25
I14
sg26
I869220
sg27
I211844
sg28
I2003885
sg29
I1624396
ssS'LEMAISTRE CHARLES'
p179
(dp180
g3
g5
sg4
g5
sg6
g5
sg7
g32
sg8
g32
sg9
I00
sg10
I-25000
sg11
g5
sg13
g5
sg14
g32
sg15
g32
sg16
g5
sg17
g5
sg18
g5
sg19
g5
sg20
g5
sg21
I112492
sg22
g5
sg23
I412878
sg24
g5
sg25
g5
sg26
g5
sg27
g5
sg28
I87492
sg29
I412878
ssS'DEFFNER JOSEPH M'
p181
(dp182
g3
I714
sg4
g5
sg6
I41626
sg7
F0.0056
sg8
F0.00095
sg9
I00
sg10
g5
sg11
S'joseph.deffner@enron.com'
p183
sg13
I335349
sg14
F1.55405
sg15
F0.02735
sg16
g5
sg17
I552
sg18
g5
sg19
I74
sg20
I25553
sg21
g5
sg22
I600000
sg23
I159211
sg24
I115
sg25
I4
sg26
I141833
sg27
I206121
sg28
I1208649
sg29
I17378
ssS'KISHKILL JOSEPH G'
p184
(dp185
g3
g5
sg4
g5
sg6
I116335
sg7
g32
sg8
g32
sg9
I00
sg10
I-51042
sg11
S'joe.kishkill@enron.com'
p186
sg13
g5
sg14
g32
sg15
g32
sg16
g5
sg17
g5
sg18
g5
sg19
g5
sg20
I465357
sg21
g5
sg22
g5
sg23
I1034346
sg24
g5
sg25
g5
sg26
I1034346
sg27
I174246
sg28
I704896
sg29
g5
ssS'WHALLEY LAWRENCE G'
p187
(dp188
g3
I6019
sg4
g5
sg6
I57838
sg7
F0.00399
sg8
F0.00571
sg9
I00
sg10
g5
sg11
S'greg.whalley@enron.com'
p189
sg13
I808346
sg14
F0.33453
sg15
F0.04423
sg16
g5
sg17
I3920
sg18
g5
sg19
I556
sg20
I301026
sg21
g5
sg22
I3000000
sg23
I6079137
sg24
I186
sg25
I24
sg26
I2796177
sg27
I510364
sg28
I4677574
sg29
I3282960
ssS'MCCONNELL MICHAEL S'
p190
(dp191
g3
I3329
sg4
g5
sg6
I81364
sg7
F0.05828
sg8
F0.04614
sg9
I00
sg10
g5
sg11
S'mike.mcconnell@enron.com'
p192
sg13
I554422
sg14
F0.03355
sg15
F0.02188
sg16
g5
sg17
I2189
sg18
g5
sg19
I2742
sg20
I540
sg21
g5
sg22
I1100000
sg23
I3101279
sg24
I92
sg25
I194
sg26
I1478269
sg27
I365038
sg28
I2101364
sg29
I1623010
ssS'PIRO JIM'
p193
(dp194
g3
I58
sg4
g5
sg6
g5
sg7
F0.01724
sg8
F0.00024
sg9
I00
sg10
g5
sg11
S'jim.piro@enron.com'
p195
sg13
g5
sg14
F0.0
sg15
F0.0
sg16
g5
sg17
I3
sg18
g5
sg19
I16
sg20
g5
sg21
g5
sg22
g5
sg23
I47304
sg24
I0
sg25
I1
sg26
I47304
sg27
g5
sg28
g5
sg29
g5
ssS'DELAINEY DAVID W'
p196
(dp197
g3
I3093
sg4
g5
sg6
I86174
sg7
F0.1969
sg8
F0.14483
sg9
I01
sg10
g5
sg11
S'david.delainey@enron.com'
p198
sg13
I1294981
sg14
F0.02151
sg15
F0.0157
sg16
g5
sg17
I2097
sg18
g5
sg19
I3069
sg20
I1661
sg21
g5
sg22
I3000000
sg23
I3614261
sg24
I66
sg25
I609
sg26
I1323148
sg27
I365163
sg28
I4747979
sg29
I2291113
ssS'SULLIVAN-SHAKLOVITZ COLLEEN'
p199
(dp200
g3
g5
sg4
I181993
sg6
g5
sg7
g32
sg8
g32
sg9
I00
sg10
g5
sg11
g5
sg13
I554422
sg14
g32
sg15
g32
sg16
g5
sg17
g5
sg18
g5
sg19
g5
sg20
I162
sg21
g5
sg22
I100000
sg23
I1362375
sg24
g5
sg25
g5
sg26
g5
sg27
I162779
sg28
I999356
sg29
I1362375
ssS'WROBEL BRUCE'
p201
(dp202
g3
g5
sg4
g5
sg6
g5
sg7
g32
sg8
g32
sg9
I00
sg10
g5
sg11
g5
sg13
g5
sg14
g32
sg15
g32
sg16
g5
sg17
g5
sg18
g5
sg19
g5
sg20
g5
sg21
g5
sg22
g5
sg23
I139130
sg24
g5
sg25
g5
sg26
g5
sg27
g5
sg28
g5
sg29
I139130
ssS'LINDHOLM TOD A'
p203
(dp204
g3
g5
sg4
I204075
sg6
I57727
sg7
g32
sg8
g32
sg9
I00
sg10
g5
sg11
S'tod.lindholm@enron.com'
p205
sg13
I175000
sg14
g32
sg15
g32
sg16
g5
sg17
g5
sg18
g5
sg19
g5
sg20
I2630
sg21
g5
sg22
I200000
sg23
I3064208
sg24
g5
sg25
g5
sg26
I514847
sg27
I236457
sg28
I875889
sg29
I2549361
ssS'MEYER JEROME J'
p206
(dp207
g3
g5
sg4
g5
sg6
I2151
sg7
g32
sg8
g32
sg9
I00
sg10
I-38346
sg11
g5
sg13
g5
sg14
g32
sg15
g32
sg16
g5
sg17
g5
sg18
g5
sg19
g5
sg20
g5
sg21
I38346
sg22
g5
sg23
g5
sg24
g5
sg25
g5
sg26
g5
sg27
g5
sg28
I2151
sg29
g5
ssS'LAY KENNETH L'
p208
(dp209
g3
I4273
sg4
I202911
sg6
I99832
sg7
F0.00374
sg8
F0.0038
sg9
I01
sg10
I-300000
sg11
S'kenneth.lay@enron.com'
p210
sg13
I3600000
sg14
F3.41667
sg15
F0.02925
sg16
g5
sg17
I2411
sg18
I81525000
sg19
I36
sg20
I10359729
sg21
g5
sg22
I7000000
sg23
I49110078
sg24
I123
sg25
I16
sg26
I14761694
sg27
I1072321
sg28
I103559793
sg29
I34348384
ssS'BUTTS ROBERT H'
p211
(dp212
g3
g5
sg4
g5
sg6
I9410
sg7
g32
sg8
g32
sg9
I00
sg10
I-75000
sg11
S'bob.butts@enron.com'
p213
sg13
I175000
sg14
g32
sg15
g32
sg16
g5
sg17
g5
sg18
g5
sg19
g5
sg20
I150656
sg21
g5
sg22
I750000
sg23
I417619
sg24
g5
sg25
g5
sg26
I417619
sg27
I261516
sg28
I1271582
sg29
g5
ssS'OLSON CINDY K'
p214
(dp215
g3
I1184
sg4
I77716
sg6
I63791
sg7
F0.01267
sg8
F0.00357
sg9
I00
sg10
g5
sg11
S'cindy.olson@enron.com'
p216
sg13
I100000
sg14
F0.38462
sg15
F0.00476
sg16
g5
sg17
I856
sg18
g5
sg19
I52
sg20
I972
sg21
g5
sg22
I750000
sg23
I2606763
sg24
I20
sg25
I15
sg26
I969729
sg27
I329078
sg28
I1321557
sg29
I1637034
ssS'MCDONALD REBECCA'
p217
(dp218
g3
I894
sg4
g5
sg6
g5
sg7
F0.00112
sg8
F0.00024
sg9
I00
sg10
g5
sg11
S'rebecca.mcdonald@enron.com'
p219
sg13
g5
sg14
F4.15385
sg15
F0.01284
sg16
g5
sg17
I720
sg18
g5
sg19
I13
sg20
g5
sg21
g5
sg22
g5
sg23
I1691366
sg24
I54
sg25
I1
sg26
I934065
sg27
g5
sg28
g5
sg29
I757301
ssS'CUMBERLAND MICHAEL S'
p220
(dp221
g3
g5
sg4
g5
sg6
I22344
sg7
g32
sg8
g32
sg9
I00
sg10
g5
sg11
g5
sg13
I275000
sg14
g32
sg15
g32
sg16
g5
sg17
g5
sg18
g5
sg19
g5
sg20
I713
sg21
g5
sg22
I325000
sg23
I207940
sg24
g5
sg25
g5
sg26
I207940
sg27
I184899
sg28
I807956
sg29
g5
ssS'GAHN ROBERT S'
p222
(dp223
g3
g5
sg4
I73122
sg6
I50080
sg7
g32
sg8
g32
sg9
I00
sg10
I-1042
sg11
g5
sg13
g5
sg14
g32
sg15
g32
sg16
g5
sg17
g5
sg18
g5
sg19
g5
sg20
I76547
sg21
g5
sg22
I509870
sg23
I318607
sg24
g5
sg25
g5
sg26
I235370
sg27
I192008
sg28
I900585
sg29
I83237
ssS'MCCLELLAN GEORGE'
p224
(dp225
g3
I1744
sg4
g5
sg6
I228763
sg7
F0.0
sg8
F0.0
sg9
I00
sg10
I-125000
sg11
S'george.mcclellan@enron.com'
p226
sg13
g5
sg14
F1.06122
sg15
F0.01237
sg16
g5
sg17
I1469
sg18
g5
sg19
I49
sg20
I51587
sg21
g5
sg22
I900000
sg23
I947861
sg24
I52
sg25
I0
sg26
I441096
sg27
I263413
sg28
I1318763
sg29
I506765
ssS'HERMANN ROBERT J'
p227
(dp228
g3
g5
sg4
g5
sg6
I48357
sg7
g32
sg8
g32
sg9
I00
sg10
I-280000
sg11
S'robert.hermann@enron.com'
p229
sg13
I150000
sg14
g32
sg15
g32
sg16
g5
sg17
g5
sg18
g5
sg19
g5
sg20
I416441
sg21
g5
sg22
I700000
sg23
I668132
sg24
g5
sg25
g5
sg26
I480632
sg27
I262663
sg28
I1297461
sg29
I187500
ssS'SCRIMSHAW MATTHEW'
p230
(dp231
g3
g5
sg4
g5
sg6
g5
sg7
g32
sg8
g32
sg9
I00
sg10
g5
sg11
S'matthew.scrimshaw@enron.com'
p232
sg13
g5
sg14
g32
sg15
g32
sg16
g5
sg17
g5
sg18
g5
sg19
g5
sg20
g5
sg21
g5
sg22
g5
sg23
I759557
sg24
g5
sg25
g5
sg26
g5
sg27
g5
sg28
g5
sg29
I759557
ssS'GATHMANN WILLIAM D'
p233
(dp234
g3
g5
sg4
g5
sg6
g5
sg7
g32
sg8
g32
sg9
I00
sg10
g5
sg11
g5
sg13
g5
sg14
g32
sg15
g32
sg16
I-72419
sg17
g5
sg18
g5
sg19
g5
sg20
g5
sg21
g5
sg22
g5
sg23
I1945360
sg24
g5
sg25
g5
sg26
I264013
sg27
g5
sg28
g5
sg29
I1753766
ssS'HAEDICKE MARK E'
p235
(dp236
g3
I4009
sg4
I2157527
sg6
I76169
sg7
F0.01522
sg8
F0.01451
sg9
I00
sg10
I-934484
sg11
S'mark.haedicke@enron.com'
p237
sg13
I983346
sg14
F0.09274
sg15
F0.04281
sg16
I-329825
sg17
I1847
sg18
g5
sg19
I1941
sg20
I52382
sg21
g5
sg22
I1150000
sg23
I803094
sg24
I180
sg25
I61
sg26
I524169
sg27
I374125
sg28
I3859065
sg29
I608750
ssS'BOWEN JR RAYMOND M'
p238
(dp239
g3
I1858
sg4
g5
sg6
I65907
sg7
F0.00807
sg8
F0.00357
sg9
I01
sg10
I-833
sg11
S'raymond.bowen@enron.com'
p240
sg13
I974293
sg14
F5.18519
sg15
F0.03329
sg16
g5
sg17
I1593
sg18
g5
sg19
I27
sg20
I1621
sg21
g5
sg22
I1350000
sg23
I252055
sg24
I140
sg25
I15
sg26
I252055
sg27
I278601
sg28
I2669589
sg29
g5
ssS'GILLIS JOHN'
p241
(dp242
g3
g5
sg4
g5
sg6
g5
sg7
g32
sg8
g32
sg9
I00
sg10
g5
sg11
g5
sg13
g5
sg14
g32
sg15
g32
sg16
g5
sg17
g5
sg18
g5
sg19
g5
sg20
g5
sg21
g5
sg22
g5
sg23
I85641
sg24
g5
sg25
g5
sg26
I75838
sg27
g5
sg28
g5
sg29
I9803
ssS'FITZGERALD JAY L'
p243
(dp244
g3
I936
sg4
g5
sg6
I23870
sg7
F0.00855
sg8
F0.0019
sg9
I00
sg10
g5
sg11
S'jay.fitzgerald@enron.com'
p245
sg13
I556416
sg14
F0.0625
sg15
F0.00024
sg16
g5
sg17
I723
sg18
g5
sg19
I16
sg20
I285414
sg21
g5
sg22
I350000
sg23
I1621236
sg24
I1
sg25
I8
sg26
I956775
sg27
I199157
sg28
I1414857
sg29
I664461
ssS'MORAN MICHAEL P'
p246
(dp247
g3
I672
sg4
g5
sg6
g5
sg7
F0.0
sg8
F0.0
sg9
I00
sg10
g5
sg11
S'michael.moran@enron.com'
p248
sg13
g5
sg14
F0.0
sg15
F0.0
sg16
g5
sg17
I127
sg18
g5
sg19
I19
sg20
g5
sg21
g5
sg22
g5
sg23
I221141
sg24
I0
sg25
I0
sg26
I161602
sg27
g5
sg28
g5
sg29
I59539
ssS'REDMOND BRIAN L'
p249
(dp250
g3
I1671
sg4
g5
sg6
I14689
sg7
F0.02932
sg8
F0.01165
sg9
I00
sg10
g5
sg11
S'brian.redmond@enron.com'
p251
sg13
g5
sg14
F0.92308
sg15
F0.04851
sg16
g5
sg17
I1063
sg18
g5
sg19
I221
sg20
g5
sg21
g5
sg22
g5
sg23
I7890324
sg24
I204
sg25
I49
sg26
I381285
sg27
I96840
sg28
I111529
sg29
I7509039
ssS'BAZELIDES PHILIP J'
p252
(dp253
g3
g5
sg4
I684694
sg6
g5
sg7
g32
sg8
g32
sg9
I00
sg10
g5
sg11
g5
sg13
I93750
sg14
g32
sg15
g32
sg16
g5
sg17
g5
sg18
g5
sg19
g5
sg20
I874
sg21
g5
sg22
g5
sg23
I1599641
sg24
g5
sg25
g5
sg26
g5
sg27
I80818
sg28
I860136
sg29
I1599641
ssS'BELDEN TIMOTHY N'
p254
(dp255
g3
I7991
sg4
I2144013
sg6
I17355
sg7
F0.01352
sg8
F0.02568
sg9
I01
sg10
I-2334434
sg11
S'tim.belden@enron.com'
p256
sg13
g5
sg14
F0.47107
sg15
F0.05422
sg16
g5
sg17
I5521
sg18
g5
sg19
I484
sg20
I210698
sg21
g5
sg22
I5249999
sg23
I1110705
sg24
I228
sg25
I108
sg26
I157569
sg27
I213999
sg28
I5501630
sg29
I953136
ssS'DURAN WILLIAM D'
p257
(dp258
g3
I904
sg4
g5
sg6
I25785
sg7
F0.00332
sg8
F0.00071
sg9
I00
sg10
g5
sg11
S'w.duran@enron.com'
p259
sg13
I1105218
sg14
F8.83333
sg15
F0.02521
sg16
g5
sg17
I599
sg18
g5
sg19
I12
sg20
I1568
sg21
g5
sg22
I750000
sg23
I1640910
sg24
I106
sg25
I3
sg26
I189041
sg27
I210692
sg28
I2093263
sg29
I1451869
ssS'THORN TERENCE H'
p260
(dp261
g3
I266
sg4
I16586
sg6
I46145
sg7
F0.0
sg8
F0.0
sg9
I00
sg10
g5
sg11
S'terence.thorn@enron.com'
p262
sg13
I200000
sg14
F0.0
sg15
F0.0
sg16
g5
sg17
I73
sg18
g5
sg19
I41
sg20
I426629
sg21
g5
sg22
g5
sg23
I4817796
sg24
I0
sg25
I0
sg26
I365320
sg27
I222093
sg28
I911453
sg29
I4452476
ssS'FASTOW ANDREW S'
p263
(dp264
g3
g5
sg4
g5
sg6
I55921
sg7
g32
sg8
g32
sg9
I01
sg10
I-1386055
sg11
S'andrew.fastow@enron.com'
p265
sg13
I1736055
sg14
g32
sg15
g32
sg16
g5
sg17
g5
sg18
g5
sg19
g5
sg20
I277464
sg21
g5
sg22
I1300000
sg23
I1794412
sg24
g5
sg25
g5
sg26
I1794412
sg27
I440698
sg28
I2424083
sg29
g5
ssS'FOY JOE'
p266
(dp267
g3
I57
sg4
I181755
sg6
g5
sg7
F0.0
sg8
F0.0
sg9
I00
sg10
g5
sg11
S'tracy.foy@enron.com'
p268
sg13
g5
sg14
F0.0
sg15
F0.0
sg16
g5
sg17
I2
sg18
g5
sg19
I13
sg20
g5
sg21
g5
sg22
g5
sg23
I343434
sg24
I0
sg25
I0
sg26
g5
sg27
g5
sg28
I181755
sg29
I343434
ssS'CALGER CHRISTOPHER F'
p269
(dp270
g3
I2598
sg4
g5
sg6
I35818
sg7
F0.00962
sg8
F0.00595
sg9
I01
sg10
I-262500
sg11
S'christopher.calger@enron.com'
p271
sg13
I375304
sg14
F1.38194
sg15
F0.04732
sg16
g5
sg17
I2188
sg18
g5
sg19
I144
sg20
I486
sg21
g5
sg22
I1250000
sg23
I126027
sg24
I199
sg25
I25
sg26
I126027
sg27
I240189
sg28
I1639297
sg29
g5
ssS'RICE KENNETH D'
p272
(dp273
g3
I905
sg4
g5
sg6
I46950
sg7
F0.00442
sg8
F0.00095
sg9
I01
sg10
I-3504386
sg11
S'ken.rice@enron.com'
p274
sg13
I1617011
sg14
F2.33333
sg15
F0.00999
sg16
g5
sg17
I864
sg18
g5
sg19
I18
sg20
I174839
sg21
g5
sg22
I1750000
sg23
I22542539
sg24
I42
sg25
I4
sg26
I2748364
sg27
I420636
sg28
I505050
sg29
I19794175
ssS'KAMINSKI WINCENTY J'
p275
(dp276
g3
I4607
sg4
g5
sg6
I83585
sg7
F0.03712
sg8
F0.04067
sg9
I00
sg10
g5
sg11
S'vince.kaminski@enron.com'
p277
sg13
I323466
sg14
F0.00285
sg15
F0.00975
sg16
g5
sg17
I583
sg18
g5
sg19
I14368
sg20
I4669
sg21
g5
sg22
I400000
sg23
I976037
sg24
I41
sg25
I171
sg26
I126027
sg27
I275101
sg28
I1086821
sg29
I850010
ssS'LOCKHART EUGENE E'
p278
(dp279
g3
g5
sg4
g5
sg6
g5
sg7
g32
sg8
g32
sg9
I00
sg10
g5
sg11
g5
sg13
g5
sg14
g32
sg15
g32
sg16
g5
sg17
g5
sg18
g5
sg19
g5
sg20
g5
sg21
g5
sg22
g5
sg23
g5
sg24
g5
sg25
g5
sg26
g5
sg27
g5
sg28
g5
sg29
g5
ssS'COX DAVID'
p280
(dp281
g3
I102
sg4
g5
sg6
I27861
sg7
F0.03922
sg8
F0.00095
sg9
I00
sg10
I-41250
sg11
S'chip.cox@enron.com'
p282
sg13
g5
sg14
F0.0
sg15
F0.0
sg16
g5
sg17
I71
sg18
g5
sg19
I33
sg20
I494
sg21
g5
sg22
I800000
sg23
I495633
sg24
I0
sg25
I4
sg26
I378082
sg27
I314288
sg28
I1101393
sg29
I117551
ssS'OVERDYKE JR JERE C'
p283
(dp284
g3
g5
sg4
g5
sg6
I18834
sg7
g32
sg8
g32
sg9
I00
sg10
g5
sg11
S'jere.overdyke@enron.com'
p285
sg13
I135836
sg14
g32
sg15
g32
sg16
g5
sg17
g5
sg18
g5
sg19
g5
sg20
I176
sg21
g5
sg22
g5
sg23
I7307594
sg24
g5
sg25
g5
sg26
I2041016
sg27
I94941
sg28
I249787
sg29
I5266578
ssS'PEREIRA PAULO V. FERRAZ'
p286
(dp287
g3
g5
sg4
g5
sg6
I27942
sg7
g32
sg8
g32
sg9
I00
sg10
I-101250
sg11
g5
sg13
g5
sg14
g32
sg15
g32
sg16
g5
sg17
g5
sg18
g5
sg19
g5
sg20
g5
sg21
I101250
sg22
g5
sg23
g5
sg24
g5
sg25
g5
sg26
g5
sg27
g5
sg28
I27942
sg29
g5
ssS'STABLER FRANK'
p288
(dp289
g3
g5
sg4
g5
sg6
I16514
sg7
g32
sg8
g32
sg9
I00
sg10
g5
sg11
S'frank.stabler@enron.com'
p290
sg13
g5
sg14
g32
sg15
g32
sg16
g5
sg17
g5
sg18
g5
sg19
g5
sg20
I356071
sg21
g5
sg22
I500000
sg23
I511734
sg24
g5
sg25
g5
sg26
I511734
sg27
I239502
sg28
I1112087
sg29
g5
ssS'SKILLING JEFFREY K'
p291
(dp292
g3
I3627
sg4
g5
sg6
I29336
sg7
F0.00827
sg8
F0.00713
sg9
I01
sg10
g5
sg11
S'jeff.skilling@enron.com'
p293
sg13
I1920000
sg14
F0.81481
sg15
F0.02093
sg16
g5
sg17
I2042
sg18
g5
sg19
I108
sg20
I22122
sg21
g5
sg22
I5600000
sg23
I26093672
sg24
I88
sg25
I30
sg26
I6843672
sg27
I1111258
sg28
I8682716
sg29
I19250000
ssS'BLAKE JR. NORMAN P'
p294
(dp295
g3
g5
sg4
g5
sg6
I1279
sg7
g32
sg8
g32
sg9
I00
sg10
I-113784
sg11
g5
sg13
g5
sg14
g32
sg15
g32
sg16
g5
sg17
g5
sg18
g5
sg19
g5
sg20
g5
sg21
I113784
sg22
g5
sg23
g5
sg24
g5
sg25
g5
sg26
g5
sg27
g5
sg28
I1279
sg29
g5
ssS'SHERRICK JEFFREY B'
p296
(dp297
g3
I613
sg4
g5
sg6
g5
sg7
F0.02936
sg8
F0.00428
sg9
I00
sg10
g5
sg11
S'jeffrey.sherrick@enron.com'
p298
sg13
g5
sg14
F1.56
sg15
F0.00927
sg16
g5
sg17
I583
sg18
g5
sg19
I25
sg20
g5
sg21
g5
sg22
g5
sg23
I1832468
sg24
I39
sg25
I18
sg26
I405999
sg27
g5
sg28
g5
sg29
I1426469
ssS'PRENTICE JAMES'
p299
(dp300
g3
g5
sg4
I564348
sg6
g5
sg7
g32
sg8
g32
sg9
I00
sg10
g5
sg11
S'james.prentice@enron.com'
p301
sg13
g5
sg14
g32
sg15
g32
sg16
g5
sg17
g5
sg18
g5
sg19
g5
sg20
g5
sg21
g5
sg22
g5
sg23
I1095040
sg24
g5
sg25
g5
sg26
I208809
sg27
g5
sg28
I564348
sg29
I886231
ssS'GRAY RODNEY'
p302
(dp303
g3
g5
sg4
I93585
sg6
g5
sg7
g32
sg8
g32
sg9
I00
sg10
g5
sg11
g5
sg13
I365625
sg14
g32
sg15
g32
sg16
g5
sg17
g5
sg18
g5
sg19
g5
sg20
I680833
sg21
g5
sg22
g5
sg23
g5
sg24
g5
sg25
g5
sg26
g5
sg27
I6615
sg28
I1146658
sg29
g5
ssS'PICKERING MARK R'
p304
(dp305
g3
I898
sg4
g5
sg6
I31653
sg7
F0.0
sg8
F0.0
sg9
I00
sg10
g5
sg11
S'mark.pickering@enron.com'
p306
sg13
g5
sg14
F0.10448
sg15
F0.00166
sg16
g5
sg17
I728
sg18
I400000
sg19
I67
sg20
g5
sg21
g5
sg22
I300000
sg23
I28798
sg24
I7
sg25
I0
sg26
g5
sg27
I655037
sg28
I1386690
sg29
I28798
ssS'THE TRAVEL AGENCY IN THE PARK'
p307
(dp308
g3
g5
sg4
g5
sg6
g5
sg7
g32
sg8
g32
sg9
I00
sg10
g5
sg11
g5
sg13
g5
sg14
g32
sg15
g32
sg16
g5
sg17
g5
sg18
g5
sg19
g5
sg20
I362096
sg21
g5
sg22
g5
sg23
g5
sg24
g5
sg25
g5
sg26
g5
sg27
g5
sg28
I362096
sg29
g5
ssS'NOLES JAMES L'
p309
(dp310
g3
g5
sg4
I774401
sg6
g5
sg7
g32
sg8
g32
sg9
I00
sg10
g5
sg11
g5
sg13
g5
sg14
g32
sg15
g32
sg16
I-94556
sg17
g5
sg18
g5
sg19
g5
sg20
g5
sg21
g5
sg22
g5
sg23
I368705
sg24
g5
sg25
g5
sg26
I463261
sg27
g5
sg28
I774401
sg29
g5
ssS'KEAN STEVEN J'
p311
(dp312
g3
I12754
sg4
g5
sg6
I41953
sg7
F0.03034
sg8
F0.09203
sg9
I00
sg10
g5
sg11
S'steven.kean@enron.com'
p313
sg13
I300000
sg14
F0.02071
sg15
F0.03329
sg16
g5
sg17
I3639
sg18
g5
sg19
I6759
sg20
I1231
sg21
g5
sg22
I1000000
sg23
I6153642
sg24
I140
sg25
I387
sg26
I4131594
sg27
I404338
sg28
I1747522
sg29
I2022048
ssS'FOWLER PEGGY'
p314
(dp315
g3
I517
sg4
g5
sg6
g5
sg7
F0.0
sg8
F0.0
sg9
I00
sg10
g5
sg11
S'kulvinder.fowler@enron.com'
p316
sg13
g5
sg14
F0.0
sg15
F0.0
sg16
g5
sg17
I10
sg18
g5
sg19
I36
sg20
g5
sg21
g5
sg22
g5
sg23
I1884748
sg24
I0
sg25
I0
sg26
I560170
sg27
g5
sg28
g5
sg29
I1324578
ssS'WASAFF GEORGE'
p317
(dp318
g3
I400
sg4
I831299
sg6
g5
sg7
F0.0175
sg8
F0.00166
sg9
I00
sg10
I-583325
sg11
S'george.wasaff@enron.com'
p319
sg13
I200000
sg14
F0.73333
sg15
F0.00523
sg16
g5
sg17
I337
sg18
g5
sg19
I30
sg20
I1425
sg21
g5
sg22
I325000
sg23
I2056427
sg24
I22
sg25
I7
sg26
I388167
sg27
I259996
sg28
I1034395
sg29
I1668260
ssS'WHITE JR THOMAS E'
p320
(dp321
g3
g5
sg4
g5
sg6
I81353
sg7
g32
sg8
g32
sg9
I00
sg10
g5
sg11
S'thomas.white@enron.com'
p322
sg13
g5
sg14
g32
sg15
g32
sg16
g5
sg17
g5
sg18
g5
sg19
g5
sg20
I1085463
sg21
g5
sg22
I450000
sg23
I15144123
sg24
g5
sg25
g5
sg26
I13847074
sg27
I317543
sg28
I1934359
sg29
I1297049
ssS'CHRISTODOULOU DIOMEDES'
p323
(dp324
g3
g5
sg4
g5
sg6
g5
sg7
g32
sg8
g32
sg9
I00
sg10
g5
sg11
S'diomedes.christodoulou@enron.com'
p325
sg13
g5
sg14
g32
sg15
g32
sg16
g5
sg17
g5
sg18
g5
sg19
g5
sg20
g5
sg21
g5
sg22
g5
sg23
I6077885
sg24
g5
sg25
g5
sg26
I950730
sg27
g5
sg28
g5
sg29
I5127155
ssS'ALLEN PHILLIP K'
p326
(dp327
g3
I2902
sg4
I2869717
sg6
I13868
sg7
F0.0224
sg8
F0.01546
sg9
I00
sg10
I-3081055
sg11
S'phillip.allen@enron.com'
p328
sg13
I304805
sg14
F0.02141
sg15
F0.01118
sg16
I-126027
sg17
I1407
sg18
g5
sg19
I2195
sg20
I152
sg21
g5
sg22
I4175000
sg23
I1729541
sg24
I47
sg25
I65
sg26
I126027
sg27
I201955
sg28
I4484442
sg29
I1729541
ssS'SHARP VICTORIA T'
p329
(dp330
g3
I3136
sg4
I187469
sg6
I116337
sg7
F0.00191
sg8
F0.00143
sg9
I00
sg10
g5
sg11
S'vicki.sharp@enron.com'
p331
sg13
I422158
sg14
F0.17647
sg15
F0.00571
sg16
g5
sg17
I2477
sg18
g5
sg19
I136
sg20
I2401
sg21
g5
sg22
I600000
sg23
I494136
sg24
I24
sg25
I6
sg26
I213063
sg27
I248146
sg28
I1576511
sg29
I281073
ssS'JAEDICKE ROBERT'
p332
(dp333
g3
g5
sg4
g5
sg6
g5
sg7
g32
sg8
g32
sg9
I00
sg10
I-25000
sg11
g5
sg13
g5
sg14
g32
sg15
g32
sg16
I-44093
sg17
g5
sg18
g5
sg19
g5
sg20
g5
sg21
I108750
sg22
g5
sg23
I431750
sg24
g5
sg25
g5
sg26
I44093
sg27
g5
sg28
I83750
sg29
I431750
ssS'WINOKUR JR. HERBERT S'
p334
(dp335
g3
g5
sg4
g5
sg6
I1413
sg7
g32
sg8
g32
sg9
I00
sg10
I-25000
sg11
g5
sg13
g5
sg14
g32
sg15
g32
sg16
g5
sg17
g5
sg18
g5
sg19
g5
sg20
g5
sg21
I108579
sg22
g5
sg23
g5
sg24
g5
sg25
g5
sg26
g5
sg27
g5
sg28
I84992
sg29
g5
ssS'BROWN MICHAEL'
p336
(dp337
g3
I1486
sg4
g5
sg6
I49288
sg7
F0.00067
sg8
F0.00024
sg9
I00
sg10
g5
sg11
S'michael.brown@enron.com'
p338
sg13
g5
sg14
F0.31707
sg15
F0.00309
sg16
g5
sg17
I761
sg18
g5
sg19
I41
sg20
g5
sg21
g5
sg22
g5
sg23
g5
sg24
I13
sg25
I1
sg26
g5
sg27
g5
sg28
I49288
sg29
g5
ssS'BADUM JAMES P'
p339
(dp340
g3
g5
sg4
I178980
sg6
I3486
sg7
g32
sg8
g32
sg9
I00
sg10
g5
sg11
g5
sg13
g5
sg14
g32
sg15
g32
sg16
g5
sg17
g5
sg18
g5
sg19
g5
sg20
g5
sg21
g5
sg22
g5
sg23
I257817
sg24
g5
sg25
g5
sg26
g5
sg27
g5
sg28
I182466
sg29
I257817
ssS'HUGHES JAMES A'
p341
(dp342
g3
I719
sg4
g5
sg6
g5
sg7
F0.00695
sg8
F0.00119
sg9
I00
sg10
g5
sg11
S'james.hughes@enron.com'
p343
sg13
g5
sg14
F1.02941
sg15
F0.00832
sg16
g5
sg17
I589
sg18
g5
sg19
I34
sg20
g5
sg21
g5
sg22
g5
sg23
I1118394
sg24
I35
sg25
I5
sg26
I363428
sg27
g5
sg28
g5
sg29
I754966
ssS'REYNOLDS LAWRENCE'
p344
(dp345
g3
g5
sg4
I51365
sg6
I8409
sg7
g32
sg8
g32
sg9
I00
sg10
I-200000
sg11
g5
sg13
I156250
sg14
g32
sg15
g32
sg16
I-140264
sg17
g5
sg18
g5
sg19
g5
sg20
I202052
sg21
g5
sg22
I100000
sg23
I4221891
sg24
g5
sg25
g5
sg26
I201483
sg27
I76399
sg28
I394475
sg29
I4160672
ssS'DIMICHELE RICHARD G'
p346
(dp347
g3
g5
sg4
g5
sg6
I35812
sg7
g32
sg8
g32
sg9
I00
sg10
g5
sg11
S'richard.dimichele@enron.com'
p348
sg13
I694862
sg14
g32
sg15
g32
sg16
g5
sg17
g5
sg18
g5
sg19
g5
sg20
I374689
sg21
g5
sg22
I1000000
sg23
I8317782
sg24
g5
sg25
g5
sg26
I126027
sg27
I262788
sg28
I2368151
sg29
I8191755
ssS'BHATNAGAR SANJAY'
p349
(dp350
g3
I523
sg4
g5
sg6
g5
sg7
F0.00191
sg8
F0.00024
sg9
I00
sg10
g5
sg11
S'sanjay.bhatnagar@enron.com'
p351
sg13
g5
sg14
F0.0
sg15
F0.0
sg16
I15456290
sg17
I463
sg18
g5
sg19
I29
sg20
I137864
sg21
I137864
sg22
g5
sS'total_stock_value'
p352
S'NaN'
p353
sg24
I0
sg25
I1
sg26
I-2604490
sg27
g5
sg28
I15456290
sg29
I2604490
ssS'CARTER REBECCA C'
p354
(dp355
g3
I312
sg4
g5
sg6
g5
sg7
F0.02244
sg8
F0.00166
sg9
I00
sg10
I-159792
sg11
S'rebecca.carter@enron.com'
p356
sg13
I75000
sg14
F1.93333
sg15
F0.0069
sg16
I-307301
sg17
I196
sg18
g5
sg19
I15
sg20
I540
sg21
g5
sg22
I300000
sg23
g5
sg24
I29
sg25
I7
sg26
I307301
sg27
I261809
sg28
I477557
sg29
g5
ssS'BUCHANAN HAROLD G'
p357
(dp358
g3
I1088
sg4
g5
sg6
I600
sg7
F0.0
sg8
F0.0
sg9
I00
sg10
g5
sg11
S'john.buchanan@enron.com'
p359
sg13
I304805
sg14
F0.0
sg15
F0.0
sg16
g5
sg17
I23
sg18
g5
sg19
I125
sg20
I1215
sg21
g5
sg22
I500000
sg23
I1014505
sg24
I0
sg25
I0
sg26
I189041
sg27
I248017
sg28
I1054637
sg29
I825464
ssS'YEAP SOON'
p360
(dp361
g3
g5
sg4
g5
sg6
I55097
sg7
g32
sg8
g32
sg9
I00
sg10
g5
sg11
g5
sg13
g5
sg14
g32
sg15
g32
sg16
g5
sg17
g5
sg18
g5
sg19
g5
sg20
g5
sg21
g5
sg22
g5
sg23
I192758
sg24
g5
sg25
g5
sg26
g5
sg27
g5
sg28
I55097
sg29
I192758
ssS'MURRAY JULIA H'
p362
(dp363
g3
I2192
sg4
g5
sg6
I57580
sg7
F0.00091
sg8
F0.00048
sg9
I00
sg10
g5
sg11
S'julia.murray@enron.com'
p364
sg13
I125000
sg14
F0.24444
sg15
F0.00262
sg16
g5
sg17
I395
sg18
g5
sg19
I45
sg20
I330
sg21
g5
sg22
I400000
sg23
I597461
sg24
I11
sg25
I2
sg26
I196983
sg27
I229284
sg28
I812194
sg29
I400478
ssS'GARLAND C KEVIN'
p365
(dp366
g3
I209
sg4
g5
sg6
I48405
sg7
F0.12919
sg8
F0.00642
sg9
I00
sg10
g5
sg11
S'kevin.garland@enron.com'
p367
sg13
I375304
sg14
F0.22727
sg15
F0.00238
sg16
g5
sg17
I178
sg18
g5
sg19
I44
sg20
I60814
sg21
g5
sg22
I850000
sg23
I896153
sg24
I10
sg25
I27
sg26
I259907
sg27
I231946
sg28
I1566469
sg29
I636246
ssS'DODSON KEITH'
p368
(dp369
g3
I176
sg4
g5
sg6
I28164
sg7
F0.01705
sg8
F0.00071
sg9
I00
sg10
g5
sg11
S'keith.dodson@enron.com'
p370
sg13
g5
sg14
F0.71429
sg15
F0.00238
sg16
g5
sg17
I114
sg18
g5
sg19
I14
sg20
I774
sg21
g5
sg22
I70000
sg23
g5
sg24
I10
sg25
I3
sg26
g5
sg27
I221003
sg28
I319941
sg29
g5
ssS'YEAGER F SCOTT'
p371
(dp372
g3
g5
sg4
g5
sg6
I53947
sg7
g32
sg8
g32
sg9
I01
sg10
g5
sg11
S'scott.yeager@enron.com'
p373
sg13
g5
sg14
g32
sg15
g32
sg16
g5
sg17
g5
sg18
g5
sg19
g5
sg20
I147950
sg21
g5
sg22
g5
sg23
I11884758
sg24
g5
sg25
g5
sg26
I3576206
sg27
I158403
sg28
I360300
sg29
I8308552
ssS'HIRKO JOSEPH'
p374
(dp375
g3
g5
sg4
I10259
sg6
I77978
sg7
g32
sg8
g32
sg9
I01
sg10
g5
sg11
S'joe.hirko@enron.com'
p376
sg13
g5
sg14
g32
sg15
g32
sg16
g5
sg17
g5
sg18
g5
sg19
g5
sg20
I2856
sg21
g5
sg22
g5
sg23
I30766064
sg24
g5
sg25
g5
sg26
g5
sg27
g5
sg28
I91093
sg29
I30766064
ssS'DIETRICH JANET R'
p377
(dp378
g3
I2572
sg4
g5
sg6
I3475
sg7
F0.00544
sg8
F0.00333
sg9
I00
sg10
g5
sg11
S'janet.dietrich@enron.com'
p379
sg13
I556416
sg14
F4.84127
sg15
F0.07253
sg16
g5
sg17
I1902
sg18
g5
sg19
I63
sg20
I473
sg21
g5
sg22
I600000
sg23
I1865087
sg24
I305
sg25
I14
sg26
I315068
sg27
I250100
sg28
I1410464
sg29
I1550019
ssS'DERRICK JR. JAMES V'
p380
(dp381
g3
I2181
sg4
g5
sg6
I51124
sg7
F0.00917
sg8
F0.00476
sg9
I00
sg10
I-1284000
sg11
S'james.derrick@enron.com'
p382
sg13
I484000
sg14
F0.07041
sg15
F0.01522
sg16
I-1787380
sg17
I1401
sg18
g5
sg19
I909
sg20
I7482
sg21
g5
sg22
I800000
sg23
I8831913
sg24
I64
sg25
I20
sg26
I1787380
sg27
I492375
sg28
I550981
sg29
I8831913
ssS'FREVERT MARK A'
p383
(dp384
g3
I3275
sg4
I6426990
sg6
I86987
sg7
F0.00183
sg8
F0.00143
sg9
I00
sg10
I-3367011
sg11
S'mark.frevert@enron.com'
p385
sg13
I1617011
sg14
F11.52381
sg15
F0.05755
sg16
g5
sg17
I2979
sg18
I2000000
sg19
I21
sg20
I7427621
sg21
g5
sg22
I2000000
sg23
I14622185
sg24
I242
sg25
I6
sg26
I4188667
sg27
I1060932
sg28
I17252530
sg29
I10433518
ssS'PAI LOU L'
p386
(dp387
g3
g5
sg4
g5
sg6
I32047
sg7
g32
sg8
g32
sg9
I00
sg10
g5
sg11
S'lou.pai@enron.com'
p388
sg13
g5
sg14
g32
sg15
g32
sg16
g5
sg17
g5
sg18
g5
sg19
g5
sg20
I1829457
sg21
g5
sg22
I1000000
sg23
I23817930
sg24
g5
sg25
g5
sg26
I8453763
sg27
I261879
sg28
I3123383
sg29
I15364167
ssS'BAY FRANKLIN R'
p389
(dp390
g3
g5
sg4
I260455
sg6
I129142
sg7
g32
sg8
g32
sg9
I00
sg10
I-201641
sg11
S'frank.bay@enron.com'
p391
sg13
g5
sg14
g32
sg15
g32
sg16
I-82782
sg17
g5
sg18
g5
sg19
g5
sg20
I69
sg21
g5
sg22
I400000
sg23
I63014
sg24
g5
sg25
g5
sg26
I145796
sg27
I239671
sg28
I827696
sg29
g5
ssS'HAYSLETT RODERICK J'
p392
(dp393
g3
I2649
sg4
g5
sg6
g5
sg7
F0.01435
sg8
F0.00904
sg9
I00
sg10
g5
sg11
S'rod.hayslett@enron.com'
p394
sg13
g5
sg14
F0.03299
sg15
F0.00832
sg16
g5
sg17
I571
sg18
g5
sg19
I1061
sg20
g5
sg21
g5
sg22
g5
sg23
I346663
sg24
I35
sg25
I38
sg26
I346663
sg27
g5
sg28
g5
sg29
g5
ssS'FUGH JOHN L'
p395
(dp396
g3
g5
sg4
I50591
sg6
g5
sg7
g32
sg8
g32
sg9
I00
sg10
g5
sg11
g5
sg13
g5
sg14
g32
sg15
g32
sg16
g5
sg17
g5
sg18
g5
sg19
g5
sg20
g5
sg21
g5
sg22
g5
sg23
I176378
sg24
g5
sg25
g5
sg26
g5
sg27
g5
sg28
I50591
sg29
I176378
ssS'FALLON JAMES B'
p397
(dp398
g3
I1755
sg4
g5
sg6
I95924
sg7
F0.02108
sg8
F0.0088
sg9
I00
sg10
g5
sg11
S'jim.fallon@enron.com'
p399
sg13
I374347
sg14
F0.56
sg15
F0.00999
sg16
g5
sg17
I1604
sg18
g5
sg19
I75
sg20
I401481
sg21
g5
sg22
I2500000
sg23
I2332399
sg24
I42
sg25
I37
sg26
I1392142
sg27
I304588
sg28
I3676340
sg29
I940257
ssS'KOENIG MARK E'
p400
(dp401
g3
I2374
sg4
g5
sg6
I127017
sg7
F0.00632
sg8
F0.00357
sg9
I01
sg10
g5
sg11
S'mark.koenig@enron.com'
p402
sg13
I300000
sg14
F0.86885
sg15
F0.0126
sg16
g5
sg17
I2271
sg18
g5
sg19
I61
sg20
I150458
sg21
g5
sg22
I700000
sg23
I1920055
sg24
I53
sg25
I15
sg26
I1248318
sg27
I309946
sg28
I1587421
sg29
I671737
ssS'SAVAGE FRANK'
p403
(dp404
g3
g5
sg4
g5
sg6
g5
sg7
g32
sg8
g32
sg9
I00
sg10
I-121284
sg11
g5
sg13
g5
sg14
g32
sg15
g32
sg16
g5
sg17
g5
sg18
g5
sg19
g5
sg20
g5
sg21
I125034
sg22
g5
sg23
g5
sg24
g5
sg25
g5
sg26
g5
sg27
g5
sg28
I3750
sg29
g5
ssS'IZZO LAWRENCE L'
p405
(dp406
g3
I496
sg4
g5
sg6
I28093
sg7
F0.01008
sg8
F0.00119
sg9
I00
sg10
g5
sg11
S'larry.izzo@enron.com'
p407
sg13
I312500
sg14
F1.47368
sg15
F0.00666
sg16
g5
sg17
I437
sg18
g5
sg19
I19
sg20
I1553729
sg21
g5
sg22
g5
sg23
I5819980
sg24
I28
sg25
I5
sg26
I3654808
sg27
I85274
sg28
I1979596
sg29
I2165172
ssS'TILNEY ELIZABETH A'
p408
(dp409
g3
I460
sg4
g5
sg6
g5
sg7
F0.02391
sg8
F0.00262
sg9
I00
sg10
I-575000
sg11
S'elizabeth.tilney@enron.com'
p410
sg13
I275000
sg14
F0.52632
sg15
F0.00238
sg16
g5
sg17
I379
sg18
g5
sg19
I19
sg20
I152055
sg21
g5
sg22
I300000
sg23
I1168042
sg24
I10
sg25
I11
sg26
I576792
sg27
I247338
sg28
I399393
sg29
I591250
ssS'MARTIN AMANDA K'
p411
(dp412
g3
I1522
sg4
I85430
sg6
I8211
sg7
F0.0
sg8
F0.0
sg9
I00
sg10
g5
sg11
S'a..martin@enron.com'
p413
sg13
I5145434
sg14
F0.03478
sg15
F0.0019
sg16
g5
sg17
I477
sg18
g5
sg19
I230
sg20
I2818454
sg21
g5
sg22
g5
sg23
I2070306
sg24
I8
sg25
I0
sg26
g5
sg27
I349487
sg28
I8407016
sg29
I2070306
ssS'BUY RICHARD B'
p414
(dp415
g3
I3523
sg4
I649584
sg6
g5
sg7
F0.02015
sg8
F0.01688
sg9
I00
sg10
I-694862
sg11
S'rick.buy@enron.com'
p416
sg13
I769862
sg14
F0.14815
sg15
F0.0371
sg16
g5
sg17
I2333
sg18
g5
sg19
I1053
sg20
I400572
sg21
g5
sg22
I900000
sg23
I3444470
sg24
I156
sg25
I71
sg26
I901657
sg27
I330546
sg28
I2355702
sg29
I2542813
ssS'GRAMM WENDY L'
p417
(dp418
g3
g5
sg4
g5
sg6
g5
sg7
g32
sg8
g32
sg9
I00
sg10
g5
sg11
g5
sg13
g5
sg14
g32
sg15
g32
sg16
g5
sg17
g5
sg18
g5
sg19
g5
sg20
g5
sg21
I119292
sg22
g5
sg23
g5
sg24
g5
sg25
g5
sg26
g5
sg27
g5
sg28
I119292
sg29
g5
ssS'CAUSEY RICHARD A'
p419
(dp420
g3
I1892
sg4
g5
sg6
I30674
sg7
F0.00634
sg8
F0.00285
sg9
I01
sg10
I-235000
sg11
S'richard.causey@enron.com'
p421
sg13
I350000
sg14
F1.18367
sg15
F0.01379
sg16
g5
sg17
I1585
sg18
g5
sg19
I49
sg20
I307895
sg21
g5
sg22
I1000000
sg23
I2502063
sg24
I58
sg25
I12
sg26
I2502063
sg27
I415189
sg28
I1868758
sg29
g5
ssS'TAYLOR MITCHELL S'
p422
(dp423
g3
I533
sg4
I227449
sg6
g5
sg7
F0.0
sg8
F0.0
sg9
I00
sg10
g5
sg11
S'mitchell.taylor@enron.com'
p424
sg13
g5
sg14
F0.0
sg15
F0.0
sg16
g5
sg17
I300
sg18
g5
sg19
I29
sg20
g5
sg21
g5
sg22
I600000
sg23
I3745048
sg24
I0
sg25
I0
sg26
I563798
sg27
I265214
sg28
I1092663
sg29
I3181250
ssS'DONAHUE JR JEFFREY M'
p425
(dp426
g3
I865
sg4
g5
sg6
I96268
sg7
F0.01272
sg8
F0.00262
sg9
I00
sg10
I-300000
sg11
S'jeff.donahue@enron.com'
p427
sg13
g5
sg14
F8.54545
sg15
F0.04471
sg16
g5
sg17
I772
sg18
g5
sg19
I22
sg20
I891
sg21
g5
sg22
I800000
sg23
I1080988
sg24
I188
sg25
I11
sg26
I315068
sg27
I278601
sg28
I875760
sg29
I765920
ssS'GLISAN JR BEN F'
p428
(dp429
g3
I873
sg4
g5
sg6
I125978
sg7
F0.00687
sg8
F0.00143
sg9
I01
sg10
g5
sg11
S'ben.glisan@enron.com'
p430
sg13
I71023
sg14
F3.25
sg15
F0.01237
sg16
g5
sg17
I874
sg18
g5
sg19
I16
sg20
I200308
sg21
g5
sg22
I600000
sg23
I778546
sg24
I52
sg25
I6
sg26
I393818
sg27
I274975
sg28
I1272284
sg29
I384728
ss.