(lp0
S'poi'
p1
aS'salary'
p2
aS'total_payments'
p3
aS'long_term_incentive'
p4
aS'expenses'
p5
aS'exercised_stock_options'
p6
aS'restricted_stock'
p7
aS'from_messages'
p8
aS'other'
p9
aS'shared_receipt_with_poi'
p10
aS'from_this_person_to_poi'
p11
aS'from_poi_to_this_person_ratio2'
p12
aS'from_this_person_to_poi_ratio1'
p13
aS'from_this_person_to_poi_ratio2'
p14
aS'to_messages'
p15
aS'from_poi_to_this_person_ratio1'
p16
aS'bonus'
p17
aS'from_poi_to_this_person'
p18
aS'loan_advances'
p19
a.